target datalayout = "e-m:e-p270:32:32-p271:32:32-p272:64:64-i64:64-i128:128-f80:128-n8:16:32:64-S128"
target triple = "x86_64-pc-linux-gnu"

; Function Attrs: noinline nounwind uwtable
define internal void @add_y(i64 noundef %0, ptr noundef %1, ptr noundef %2, i64 noundef %3) #5 {
  %5 = alloca i64, align 8
  %6 = alloca ptr, align 8
  %7 = alloca ptr, align 8
  %8 = alloca i64, align 8
  %9 = alloca i64, align 8
  %10 = alloca i32, align 4
  store i64 %0, ptr %5, align 8, !tbaa !3
  store ptr %1, ptr %6, align 8, !tbaa !9
  store ptr %2, ptr %7, align 8, !tbaa !9
  store i64 %3, ptr %8, align 8, !tbaa !3
  call void @llvm.lifetime.start.p0(i64 8, ptr %9) #10
  %11 = load i64, ptr %8, align 8, !tbaa !3
  %12 = icmp ne i64 %11, 1
  br i1 %12, label %13, label %33

13:                                               ; preds = %4
  store i64 0, ptr %9, align 8, !tbaa !3
  br label %14

14:                                               ; preds = %29, %13
  %15 = load i64, ptr %9, align 8, !tbaa !3
  %16 = load i64, ptr %5, align 8, !tbaa !3
  %17 = icmp slt i64 %15, %16
  br i1 %17, label %18, label %32

18:                                               ; preds = %14
  %19 = load ptr, ptr %6, align 8, !tbaa !9
  %20 = load double, ptr %19, align 8, !tbaa !7
  %21 = load ptr, ptr %7, align 8, !tbaa !9
  %22 = load double, ptr %21, align 8, !tbaa !7
  %23 = fadd double %22, %20
  store double %23, ptr %21, align 8, !tbaa !7
  %24 = load ptr, ptr %6, align 8, !tbaa !9
  %25 = getelementptr inbounds nuw double, ptr %24, i32 1
  store ptr %25, ptr %6, align 8, !tbaa !9
  %26 = load i64, ptr %8, align 8, !tbaa !3
  %27 = load ptr, ptr %7, align 8, !tbaa !9
  %28 = getelementptr inbounds double, ptr %27, i64 %26
  store ptr %28, ptr %7, align 8, !tbaa !9
  br label %29

29:                                               ; preds = %18
  %30 = load i64, ptr %9, align 8, !tbaa !3
  %31 = add nsw i64 %30, 1
  store i64 %31, ptr %9, align 8, !tbaa !3
  br label %14, !llvm.loop !35

32:                                               ; preds = %14
  store i32 1, ptr %10, align 4
  br label %34

33:                                               ; preds = %4
  store i32 0, ptr %10, align 4
  br label %34

34:                                               ; preds = %33, %32
  call void @llvm.lifetime.end.p0(i64 8, ptr %9) #10
  %35 = load i32, ptr %10, align 4
  switch i32 %35, label %37 [
    i32 0, label %36
    i32 1, label %36
  ]

36:                                               ; preds = %34, %34
  ret void

37:                                               ; preds = %34
  unreachable
}