; Function Attrs: nofree noinline norecurse nosync nounwind memory(argmem: readwrite) uwtable
define internal fastcc void @add_y(i64 noundef range(i64 -3, 2049) %0, ptr noundef readonly captures(none) %1, ptr noundef captures(none) %2, i64 noundef range(i64 2, 1) %3) unnamed_addr #4 {
  %5 = icmp sgt i64 %0, 0
  br i1 %5, label %.lr.ph, label %._crit_edge

.lr.ph:                                           ; preds = %4, %.lr.ph
  %.013 = phi i64 [ %11, %.lr.ph ], [ 0, %4 ]
  %.0812 = phi ptr [ %9, %.lr.ph ], [ %1, %4 ]
  %.0911 = phi ptr [ %10, %.lr.ph ], [ %2, %4 ]
  %6 = load double, ptr %.0812, align 8, !tbaa !3
  %7 = load double, ptr %.0911, align 8, !tbaa !3
  %8 = fadd double %6, %7
  store double %8, ptr %.0911, align 8, !tbaa !3
  %9 = getelementptr inbounds nuw i8, ptr %.0812, i64 8
  %10 = getelementptr inbounds double, ptr %.0911, i64 %3
  %11 = add nuw nsw i64 %.013, 1
  %exitcond.not = icmp eq i64 %11, %0
  br i1 %exitcond.not, label %._crit_edge, label %.lr.ph, !llvm.loop !26

._crit_edge:                                      ; preds = %.lr.ph, %4
  ret void
}